target datalayout = "e-m:e-p270:32:32-p271:32:32-p272:64:64-i64:64-i128:128-f80:128-n8:16:32:64-S128"
target triple = "x86_64-pc-linux-gnu"

%"class.icu_77::Hashtable" = type { ptr, %struct.UHashtable }
%struct.UHashtable = type { ptr, ptr, ptr, ptr, ptr, ptr, i32, i32, i32, i32, float, float, i8, i8 }

@_ZN6icu_77L15listPatternHashE = internal global ptr null, align 8

; Function Attrs: inlinehint mustprogress nounwind uwtable
define internal noundef signext i8 @_ZL9U_SUCCESS10UErrorCode(i32 noundef %0) #2 {
  %2 = alloca i32, align 4
  store i32 %0, ptr %2, align 4, !tbaa !15
  %3 = load i32, ptr %2, align 4, !tbaa !15
  %4 = icmp sle i32 %3, 0
  %5 = zext i1 %4 to i8
  ret i8 %5
}

; Function Attrs: inlinehint mustprogress uwtable
define linkonce_odr void @_ZN6icu_779Hashtable4initEPFi8UElementEPFaS1_S1_ES5_R10UErrorCode(ptr noundef nonnull align 8 dereferenceable(88) %0, ptr noundef %1, ptr noundef %2, ptr noundef %3, ptr noundef nonnull align 4 dereferenceable(4) %4) #3 comdat align 2 {
  %6 = alloca ptr, align 8
  %7 = alloca ptr, align 8
  %8 = alloca ptr, align 8
  %9 = alloca ptr, align 8
  %10 = alloca ptr, align 8
  store ptr %0, ptr %6, align 8, !tbaa !49
  store ptr %1, ptr %7, align 8, !tbaa !22
  store ptr %2, ptr %8, align 8, !tbaa !22
  store ptr %3, ptr %9, align 8, !tbaa !22
  store ptr %4, ptr %10, align 8, !tbaa !22
  %11 = load ptr, ptr %6, align 8
  %12 = load ptr, ptr %10, align 8, !tbaa !22
  %13 = load i32, ptr %12, align 4, !tbaa !15
  %14 = call noundef signext i8 @_ZL9U_FAILURE10UErrorCode(i32 noundef %13)
  %15 = icmp ne i8 %14, 0
  br i1 %15, label %16, label %17

16:                                               ; preds = %5
  br label %34

17:                                               ; preds = %5
  %18 = getelementptr inbounds nuw %"class.icu_77::Hashtable", ptr %11, i32 0, i32 1
  %19 = load ptr, ptr %7, align 8, !tbaa !22
  %20 = load ptr, ptr %8, align 8, !tbaa !22
  %21 = load ptr, ptr %9, align 8, !tbaa !22
  %22 = load ptr, ptr %10, align 8, !tbaa !22
  %23 = call ptr @uhash_init_77(ptr noundef %18, ptr noundef %19, ptr noundef %20, ptr noundef %21, ptr noundef %22)
  %24 = load ptr, ptr %10, align 8, !tbaa !22
  %25 = load i32, ptr %24, align 4, !tbaa !15
  %26 = call noundef signext i8 @_ZL9U_SUCCESS10UErrorCode(i32 noundef %25)
  %27 = icmp ne i8 %26, 0
  br i1 %27, label %28, label %34

28:                                               ; preds = %17
  %29 = getelementptr inbounds nuw %"class.icu_77::Hashtable", ptr %11, i32 0, i32 1
  %30 = getelementptr inbounds nuw %"class.icu_77::Hashtable", ptr %11, i32 0, i32 0
  store ptr %29, ptr %30, align 8, !tbaa !51
  %31 = getelementptr inbounds nuw %"class.icu_77::Hashtable", ptr %11, i32 0, i32 0
  %32 = load ptr, ptr %31, align 8, !tbaa !51
  %33 = call ptr @uhash_setKeyDeleter_77(ptr noundef %32, ptr noundef @uprv_deleteUObject_77)
  br label %34

34:                                               ; preds = %16, %28, %17
  ret void
}

; Function Attrs: inlinehint mustprogress uwtable
define linkonce_odr noundef ptr @_ZN6icu_779Hashtable15setValueDeleterEPFvPvE(ptr noundef nonnull align 8 dereferenceable(88) %0, ptr noundef %1) #3 comdat align 2 {
  %3 = alloca ptr, align 8
  %4 = alloca ptr, align 8
  store ptr %0, ptr %3, align 8, !tbaa !49
  store ptr %1, ptr %4, align 8, !tbaa !22
  %5 = load ptr, ptr %3, align 8
  %6 = getelementptr inbounds nuw %"class.icu_77::Hashtable", ptr %5, i32 0, i32 0
  %7 = load ptr, ptr %6, align 8, !tbaa !51
  %8 = load ptr, ptr %4, align 8, !tbaa !22
  %9 = call ptr @uhash_setValueDeleter_77(ptr noundef %7, ptr noundef %8)
  ret ptr %9
}

; Function Attrs: inlinehint mustprogress uwtable
define linkonce_odr void @_ZN6icu_779HashtableC2Ev(ptr noundef nonnull align 8 dereferenceable(88) %0) unnamed_addr #3 comdat align 2 {
  %2 = alloca ptr, align 8
  %3 = alloca i32, align 4
  store ptr %0, ptr %2, align 8, !tbaa !49
  %4 = load ptr, ptr %2, align 8
  %5 = getelementptr inbounds nuw %"class.icu_77::Hashtable", ptr %4, i32 0, i32 0
  store ptr null, ptr %5, align 8, !tbaa !51
  call void @llvm.lifetime.start.p0(i64 4, ptr %3) #12
  store i32 0, ptr %3, align 4, !tbaa !15
  call void @_ZN6icu_779Hashtable4initEPFi8UElementEPFaS1_S1_ES5_R10UErrorCode(ptr noundef nonnull align 8 dereferenceable(88) %4, ptr noundef @uhash_hashUnicodeString_77, ptr noundef @uhash_compareUnicodeString_77, ptr noundef null, ptr noundef nonnull align 4 dereferenceable(4) %3)
  call void @llvm.lifetime.end.p0(i64 4, ptr %3) #12
  ret void
}

; Function Attrs: inlinehint mustprogress nounwind uwtable
define internal noundef signext i8 @_ZL9U_FAILURE10UErrorCode(i32 noundef %0) #2 {
  %2 = alloca i32, align 4
  store i32 %0, ptr %2, align 4, !tbaa !15
  %3 = load i32, ptr %2, align 4, !tbaa !15
  %4 = icmp sgt i32 %3, 0
  %5 = zext i1 %4 to i8
  ret i8 %5
}

; Function Attrs: mustprogress uwtable
define void @_ZN6icu_7713ListFormatter14initializeHashER10UErrorCode(ptr noundef nonnull align 4 dereferenceable(4) %0) #1 align 2 personality ptr @__gxx_personality_v0 {
  %2 = alloca ptr, align 8
  %3 = alloca ptr, align 8
  %4 = alloca i1, align 1
  %5 = alloca ptr, align 8
  %6 = alloca i32, align 4
  store ptr %0, ptr %2, align 8, !tbaa !22
  %7 = load ptr, ptr %2, align 8, !tbaa !22
  %8 = load i32, ptr %7, align 4, !tbaa !15
  %9 = call noundef signext i8 @_ZL9U_FAILURE10UErrorCode(i32 noundef %8)
  %10 = icmp ne i8 %9, 0
  br i1 %10, label %11, label %12

11:                                               ; preds = %1
  br label %34

12:                                               ; preds = %1
  %13 = call noundef ptr @_ZN6icu_777UMemorynwEm(i64 noundef 88) #12
  %14 = icmp eq ptr %13, null
  store i1 false, ptr %4, align 1
  br i1 %14, label %17, label %15

15:                                               ; preds = %12
  store ptr %13, ptr %3, align 8
  store i1 true, ptr %4, align 1
  invoke void @_ZN6icu_779HashtableC2Ev(ptr noundef nonnull align 8 dereferenceable(88) %13)
          to label %16 unwind label %23

16:                                               ; preds = %15
  br label %17

17:                                               ; preds = %16, %12
  %18 = phi ptr [ %13, %16 ], [ null, %12 ]
  store ptr %18, ptr @_ZN6icu_77L15listPatternHashE, align 8, !tbaa !49
  %19 = load ptr, ptr @_ZN6icu_77L15listPatternHashE, align 8, !tbaa !49
  %20 = icmp eq ptr %19, null
  br i1 %20, label %21, label %31

21:                                               ; preds = %17
  %22 = load ptr, ptr %2, align 8, !tbaa !22
  store i32 7, ptr %22, align 4, !tbaa !15
  br label %34

23:                                               ; preds = %15
  %24 = landingpad { ptr, i32 }
          cleanup
  %25 = extractvalue { ptr, i32 } %24, 0
  store ptr %25, ptr %5, align 8
  %26 = extractvalue { ptr, i32 } %24, 1
  store i32 %26, ptr %6, align 4
  %27 = load i1, ptr %4, align 1
  br i1 %27, label %28, label %30

28:                                               ; preds = %23
  %29 = load ptr, ptr %3, align 8
  call void @_ZN6icu_777UMemorydlEPv(ptr noundef %29) #12
  br label %30

30:                                               ; preds = %28, %23
  br label %35

31:                                               ; preds = %17
  %32 = load ptr, ptr @_ZN6icu_77L15listPatternHashE, align 8, !tbaa !49
  %33 = call noundef ptr @_ZN6icu_779Hashtable15setValueDeleterEPFvPvE(ptr noundef nonnull align 8 dereferenceable(88) %32, ptr noundef @_ZN6icu_77L29uprv_deleteListFormatInternalEPv)
  call void @ucln_i18n_registerCleanup_77(i32 noundef 35, ptr noundef @_ZN6icu_77L26uprv_listformatter_cleanupEv)
  br label %34

34:                                               ; preds = %31, %21, %11
  ret void

35:                                               ; preds = %30
  %36 = load ptr, ptr %5, align 8
  %37 = load i32, ptr %6, align 4
  %38 = insertvalue { ptr, i32 } poison, ptr %36, 0
  %39 = insertvalue { ptr, i32 } %38, i32 %37, 1
  resume { ptr, i32 } %39
}