; Function Attrs: mustprogress uwtable
define void @_ZN6icu_7713ListFormatter14initializeHashER10UErrorCode(ptr noundef nonnull align 4 captures(none) dereferenceable(4) %0) local_unnamed_addr #1 align 2 personality ptr @__gxx_personality_v0 {
  %2 = alloca i32, align 4
  %3 = load i32, ptr %0, align 4, !tbaa !13
  %4 = icmp slt i32 %3, 1
  br i1 %4, label %5, label %21

5:                                                ; preds = %1
  %6 = tail call noundef ptr @_ZN6icu_777UMemorynwEm(i64 noundef 88) #19
  %7 = icmp eq ptr %6, null
  br i1 %7, label %15, label %8

8:                                                ; preds = %5
  store ptr null, ptr %6, align 8, !tbaa !43
  call void @llvm.lifetime.start.p0(i64 4, ptr nonnull %2) #19
  store i32 0, ptr %2, align 4, !tbaa !13
  %9 = getelementptr inbounds nuw i8, ptr %6, i64 8
  %10 = invoke ptr @uhash_init_77(ptr noundef nonnull %9, ptr noundef nonnull @uhash_hashUnicodeString_77, ptr noundef nonnull @uhash_compareUnicodeString_77, ptr noundef null, ptr noundef nonnull align 4 dereferenceable(4) %2)
          to label %.noexc unwind label %16

.noexc:                                           ; preds = %8
  %11 = load i32, ptr %2, align 4, !tbaa !13
  %12 = icmp sgt i32 %11, 0
  br i1 %12, label %18, label %13

13:                                               ; preds = %.noexc
  store ptr %9, ptr %6, align 8, !tbaa !43
  %14 = invoke ptr @uhash_setKeyDeleter_77(ptr noundef nonnull %9, ptr noundef nonnull @uprv_deleteUObject_77)
          to label %18 unwind label %16

15:                                               ; preds = %5
  store ptr null, ptr @_ZN6icu_77L15listPatternHashE, align 8, !tbaa !49
  store i32 7, ptr %0, align 4, !tbaa !13
  br label %21

16:                                               ; preds = %13, %8
  %17 = landingpad { ptr, i32 }
          cleanup
  call void @_ZN6icu_777UMemorydlEPv(ptr noundef nonnull %6) #19
  resume { ptr, i32 } %17

18:                                               ; preds = %13, %.noexc
  call void @llvm.lifetime.end.p0(i64 4, ptr nonnull %2) #19
  store ptr %6, ptr @_ZN6icu_77L15listPatternHashE, align 8, !tbaa !49
  %19 = load ptr, ptr %6, align 8, !tbaa !43
  %20 = call noundef ptr @uhash_setValueDeleter_77(ptr noundef %19, ptr noundef nonnull @_ZN6icu_77L29uprv_deleteListFormatInternalEPv)
  call void @ucln_i18n_registerCleanup_77(i32 noundef 35, ptr noundef nonnull @_ZN6icu_77L26uprv_listformatter_cleanupEv)
  br label %21

21:                                               ; preds = %1, %18, %15
  ret void
}